; Function Attrs: mustprogress nounwind uwtable
define hidden noundef zeroext i1 @_ZN11StringDedup5Table13start_cleanerEmm(i64 noundef %0, i64 noundef %1) local_unnamed_addr #0 align 2 {
  tail call void @_ZN11StringDedup4Stat26report_cleanup_table_startEmm(ptr noundef nonnull align 8 dereferenceable(248) @_ZN11StringDedup9_cur_statE, i64 noundef %0, i64 noundef %1) #13
  %3 = tail call noundef ptr @_Z12AllocateHeapm8MEMFLAGSN17AllocFailStrategy13AllocFailEnumE(i64 noundef 24, i8 noundef zeroext 25, i32 noundef 0) #13
  store ptr getelementptr inbounds inrange(-16, 48) (i8, ptr @_ZTVN11StringDedup5Table7CleanerE, i64 16), ptr %3, align 8
  %4 = getelementptr inbounds i8, ptr %3, i64 8
  store i64 0, ptr %4, align 8
  %5 = getelementptr inbounds i8, ptr %3, i64 16
  store i32 0, ptr %5, align 8
  store i8 0, ptr @_ZN11StringDedup5Table22_need_bucket_shrinkingE, align 1
  store ptr %3, ptr @_ZN11StringDedup5Table14_cleanup_stateE, align 8
  %6 = load ptr, ptr @StringDedup_lock, align 8
  %.not.i.i.i = icmp eq ptr %6, null
  br i1 %.not.i.i.i, label %_ZN11MutexLockerC2EP5MutexNS0_18SafepointCheckFlagE.exit.thread.i, label %7

_ZN11MutexLockerC2EP5MutexNS0_18SafepointCheckFlagE.exit.thread.i: ; preds = %2
  store volatile i64 0, ptr @_ZN11StringDedup5Table11_dead_countE, align 8
  store volatile i32 3, ptr @_ZN11StringDedup5Table11_dead_stateE, align 4
  br label %_ZN11StringDedup5Table23set_dead_state_cleaningEv.exit

7:                                                ; preds = %2
  tail call void @_ZN5Mutex28lock_without_safepoint_checkEv(ptr noundef nonnull align 8 dereferenceable(104) %6) #13
  store volatile i64 0, ptr @_ZN11StringDedup5Table11_dead_countE, align 8
  store volatile i32 3, ptr @_ZN11StringDedup5Table11_dead_stateE, align 4
  tail call void @_ZN5Mutex6unlockEv(ptr noundef nonnull align 8 dereferenceable(104) %6) #13
  br label %_ZN11StringDedup5Table23set_dead_state_cleaningEv.exit

_ZN11StringDedup5Table23set_dead_state_cleaningEv.exit: ; preds = %_ZN11MutexLockerC2EP5MutexNS0_18SafepointCheckFlagE.exit.thread.i, %7
  ret i1 true
}